target datalayout = "e-m:e-p270:32:32-p271:32:32-p272:64:64-i64:64-i128:128-f80:128-n8:16:32:64-S128"
target triple = "x86_64-pc-linux-gnu"

%struct.ident_t = type { i32, i32, i32, i32, ptr }
%"class.gmx::StatePropagatorData" = type { i32, i32, %"class.gmx::PaddedVector", %"class.gmx::PaddedVector", %"class.gmx::PaddedVector", %"class.gmx::ForceBuffers", [3 x [3 x float]], [3 x [3 x float]], i32, i32, %"class.std::vector.39", %"class.gmx::PaddedVector", %"class.gmx::PaddedVector", %"class.gmx::PaddedVector", %"class.gmx::PaddedVector", %"class.std::unique_ptr", %"class.std::unique_ptr.43", i8, %"class.gmx::PaddedVector", i8, i64, ptr, ptr }
%"class.gmx::ForceBuffers" = type <{ %"class.gmx::PaddedVector", %"class.gmx::PaddedVector", %"class.gmx::ForceBuffersView", i8, [7 x i8] }>
%"class.gmx::ForceBuffersView" = type <{ %"class.gmx::ArrayRefWithPadding", %"class.gmx::ArrayRefWithPadding", i8, [7 x i8] }>
%"class.gmx::ArrayRefWithPadding" = type { ptr, ptr, ptr }
%"class.std::vector.39" = type { %"struct.std::_Vector_base.40" }
%"struct.std::_Vector_base.40" = type { %"struct.std::_Vector_base<int, std::allocator<int>>::_Vector_impl" }
%"struct.std::_Vector_base<int, std::allocator<int>>::_Vector_impl" = type { %"struct.std::_Vector_base<int, std::allocator<int>>::_Vector_impl_data" }
%"struct.std::_Vector_base<int, std::allocator<int>>::_Vector_impl_data" = type { ptr, ptr, ptr }
%"class.std::unique_ptr" = type { %"struct.std::__uniq_ptr_data" }
%"struct.std::__uniq_ptr_data" = type { %"class.std::__uniq_ptr_impl" }
%"class.std::__uniq_ptr_impl" = type { %"class.std::tuple" }
%"class.std::tuple" = type { %"struct.std::_Tuple_impl" }
%"struct.std::_Tuple_impl" = type { %"struct.std::_Head_base.42" }
%"struct.std::_Head_base.42" = type { ptr }
%"class.std::unique_ptr.43" = type { %"struct.std::__uniq_ptr_data.44" }
%"struct.std::__uniq_ptr_data.44" = type { %"class.std::__uniq_ptr_impl.45" }
%"class.std::__uniq_ptr_impl.45" = type { %"class.std::tuple.46" }
%"class.std::tuple.46" = type { %"struct.std::_Tuple_impl.47" }
%"struct.std::_Tuple_impl.47" = type { %"struct.std::_Head_base.50" }
%"struct.std::_Head_base.50" = type { ptr }
%"class.gmx::PaddedVector" = type { %"class.std::vector", %"class.__gnu_cxx::__normal_iterator" }
%"class.std::vector" = type { %"struct.std::_Vector_base" }
%"struct.std::_Vector_base" = type { %"struct.std::_Vector_base<gmx::BasicVector<float>, gmx::Allocator<gmx::BasicVector<float>, gmx::HostAllocationPolicy>>::_Vector_impl" }
%"struct.std::_Vector_base<gmx::BasicVector<float>, gmx::Allocator<gmx::BasicVector<float>, gmx::HostAllocationPolicy>>::_Vector_impl" = type { %"class.gmx::Allocator", %"struct.std::_Vector_base<gmx::BasicVector<float>, gmx::Allocator<gmx::BasicVector<float>, gmx::HostAllocationPolicy>>::_Vector_impl_data" }
%"class.gmx::Allocator" = type { %"class.gmx::HostAllocationPolicy" }
%"class.gmx::HostAllocationPolicy" = type { i32 }
%"struct.std::_Vector_base<gmx::BasicVector<float>, gmx::Allocator<gmx::BasicVector<float>, gmx::HostAllocationPolicy>>::_Vector_impl_data" = type { ptr, ptr, ptr }
%"class.__gnu_cxx::__normal_iterator" = type { ptr }
%"class.gmx::BasicVector" = type { [3 x float] }

@1 = private unnamed_addr constant %struct.ident_t { i32 0, i32 514, i32 0, i32 22, ptr @0 }, align 8

; Function Attrs: mustprogress nounwind uwtable
define linkonce_odr noundef nonnull align 4 dereferenceable(12) ptr @_ZNSt6vectorIN3gmx11BasicVectorIfEENS0_9AllocatorIS2_NS0_20HostAllocationPolicyEEEEixEm(ptr noundef nonnull align 8 dereferenceable(32) %0, i64 noundef %1) #1 comdat align 2 {
  %3 = alloca ptr, align 8
  %4 = alloca i64, align 8
  store ptr %0, ptr %3, align 8
  store i64 %1, ptr %4, align 8
  %5 = load ptr, ptr %3, align 8
  %6 = getelementptr inbounds %"struct.std::_Vector_base", ptr %5, i32 0, i32 0
  %7 = getelementptr inbounds i8, ptr %6, i64 8
  %8 = getelementptr inbounds %"struct.std::_Vector_base<gmx::BasicVector<float>, gmx::Allocator<gmx::BasicVector<float>, gmx::HostAllocationPolicy>>::_Vector_impl_data", ptr %7, i32 0, i32 0
  %9 = load ptr, ptr %8, align 8
  %10 = load i64, ptr %4, align 8
  %11 = getelementptr inbounds %"class.gmx::BasicVector", ptr %9, i64 %10
  ret ptr %11
}

; Function Attrs: mustprogress nounwind uwtable
define linkonce_odr noundef nonnull align 4 dereferenceable(12) ptr @_ZN3gmx12PaddedVectorINS_11BasicVectorIfEENS_9AllocatorIS2_NS_20HostAllocationPolicyEEEEixEi(ptr noundef nonnull align 8 dereferenceable(40) %0, i32 noundef %1) #1 comdat align 2 {
  %3 = alloca ptr, align 8
  %4 = alloca i32, align 4
  store ptr %0, ptr %3, align 8
  store i32 %1, ptr %4, align 4
  %5 = load ptr, ptr %3, align 8
  %6 = getelementptr inbounds %"class.gmx::PaddedVector", ptr %5, i32 0, i32 0
  %7 = load i32, ptr %4, align 4
  %8 = sext i32 %7 to i64
  %9 = call noundef nonnull align 4 dereferenceable(12) ptr @_ZNSt6vectorIN3gmx11BasicVectorIfEENS0_9AllocatorIS2_NS0_20HostAllocationPolicyEEEEixEm(ptr noundef nonnull align 8 dereferenceable(32) %6, i64 noundef %8) #14
  ret ptr %9
}

; Function Attrs: mustprogress uwtable
define void @_ZN3gmx19StatePropagatorData12copyPositionEii(ptr noundef nonnull align 8 dereferenceable(632) %0, i32 noundef %1, i32 noundef %2) #0 align 2 {
  %4 = alloca ptr, align 8
  %5 = alloca i32, align 4
  %6 = alloca i32, align 4
  %7 = alloca i32, align 4
  store ptr %0, ptr %4, align 8
  store i32 %1, ptr %5, align 4
  store i32 %2, ptr %6, align 4
  %8 = load ptr, ptr %4, align 8
  %9 = load i32, ptr %5, align 4
  store i32 %9, ptr %7, align 4
  br label %10

10:                                               ; preds = %21, %3
  %11 = load i32, ptr %7, align 4
  %12 = load i32, ptr %6, align 4
  %13 = icmp slt i32 %11, %12
  br i1 %13, label %14, label %24

14:                                               ; preds = %10
  %15 = getelementptr inbounds %"class.gmx::StatePropagatorData", ptr %8, i32 0, i32 2
  %16 = load i32, ptr %7, align 4
  %17 = call noundef nonnull align 4 dereferenceable(12) ptr @_ZN3gmx12PaddedVectorINS_11BasicVectorIfEENS_9AllocatorIS2_NS_20HostAllocationPolicyEEEEixEi(ptr noundef nonnull align 8 dereferenceable(40) %15, i32 noundef %16)
  %18 = getelementptr inbounds %"class.gmx::StatePropagatorData", ptr %8, i32 0, i32 3
  %19 = load i32, ptr %7, align 4
  %20 = call noundef nonnull align 4 dereferenceable(12) ptr @_ZN3gmx12PaddedVectorINS_11BasicVectorIfEENS_9AllocatorIS2_NS_20HostAllocationPolicyEEEEixEi(ptr noundef nonnull align 8 dereferenceable(40) %18, i32 noundef %19)
  call void @llvm.memcpy.p0.p0.i64(ptr align 4 %20, ptr align 4 %17, i64 12, i1 false)
  br label %21

21:                                               ; preds = %14
  %22 = load i32, ptr %7, align 4
  %23 = add nsw i32 %22, 1
  store i32 %23, ptr %7, align 4
  br label %10, !llvm.loop !18

24:                                               ; preds = %10
  ret void
}

; Function Attrs: norecurse nounwind uwtable
define internal void @_ZN3gmx19StatePropagatorData12copyPositionEv.omp_outlined(ptr noalias noundef %0, ptr noalias noundef %1, ptr noundef nonnull align 4 dereferenceable(4) %2, ptr noundef %3) #13 personality ptr @__gxx_personality_v0 {
  %5 = alloca ptr, align 8
  %6 = alloca ptr, align 8
  %7 = alloca ptr, align 8
  %8 = alloca ptr, align 8
  %9 = alloca i32, align 4
  %10 = alloca i32, align 4
  %11 = alloca i32, align 4
  %12 = alloca i32, align 4
  %13 = alloca i32, align 4
  %14 = alloca i32, align 4
  %15 = alloca i32, align 4
  %16 = alloca i32, align 4
  %17 = alloca i32, align 4
  %18 = alloca i32, align 4
  %19 = alloca i32, align 4
  store ptr %0, ptr %5, align 8
  store ptr %1, ptr %6, align 8
  store ptr %2, ptr %7, align 8
  store ptr %3, ptr %8, align 8
  %20 = load ptr, ptr %7, align 8
  %21 = load ptr, ptr %8, align 8
  %22 = load i32, ptr %20, align 4
  store i32 %22, ptr %10, align 4
  %23 = load i32, ptr %10, align 4
  %24 = sub nsw i32 %23, 0
  %25 = sdiv i32 %24, 1
  %26 = sub nsw i32 %25, 1
  store i32 %26, ptr %11, align 4
  store i32 0, ptr %12, align 4
  %27 = load i32, ptr %10, align 4
  %28 = icmp slt i32 0, %27
  br i1 %28, label %29, label %67

29:                                               ; preds = %4
  store i32 0, ptr %13, align 4
  %30 = load i32, ptr %11, align 4
  store i32 %30, ptr %14, align 4
  store i32 1, ptr %15, align 4
  store i32 0, ptr %16, align 4
  %31 = load ptr, ptr %5, align 8
  %32 = load i32, ptr %31, align 4
  call void @__kmpc_for_static_init_4(ptr @1, i32 %32, i32 34, ptr %16, ptr %13, ptr %14, ptr %15, i32 1, i32 1)
  %33 = load i32, ptr %14, align 4
  %34 = load i32, ptr %11, align 4
  %35 = icmp sgt i32 %33, %34
  br i1 %35, label %36, label %38

36:                                               ; preds = %29
  %37 = load i32, ptr %11, align 4
  br label %40

38:                                               ; preds = %29
  %39 = load i32, ptr %14, align 4
  br label %40

40:                                               ; preds = %38, %36
  %41 = phi i32 [ %37, %36 ], [ %39, %38 ]
  store i32 %41, ptr %14, align 4
  %42 = load i32, ptr %13, align 4
  store i32 %42, ptr %9, align 4
  br label %43

43:                                               ; preds = %60, %40
  %44 = load i32, ptr %9, align 4
  %45 = load i32, ptr %14, align 4
  %46 = icmp sle i32 %44, %45
  br i1 %46, label %47, label %63

47:                                               ; preds = %43
  %48 = load i32, ptr %9, align 4
  %49 = mul nsw i32 %48, 1
  %50 = add nsw i32 0, %49
  store i32 %50, ptr %17, align 4
  %51 = load i32, ptr %20, align 4
  %52 = load i32, ptr %17, align 4
  %53 = getelementptr inbounds %"class.gmx::StatePropagatorData", ptr %21, i32 0, i32 1
  %54 = load i32, ptr %53, align 4
  invoke void @_Z18getThreadAtomRangeiiiPiS_(i32 noundef %51, i32 noundef %52, i32 noundef %54, ptr noundef %18, ptr noundef %19)
          to label %55 unwind label %68

55:                                               ; preds = %47
  %56 = load i32, ptr %18, align 4
  %57 = load i32, ptr %19, align 4
  invoke void @_ZN3gmx19StatePropagatorData12copyPositionEii(ptr noundef nonnull align 8 dereferenceable(632) %21, i32 noundef %56, i32 noundef %57)
          to label %58 unwind label %68

58:                                               ; preds = %55
  br label %59

59:                                               ; preds = %58
  br label %60

60:                                               ; preds = %59
  %61 = load i32, ptr %9, align 4
  %62 = add nsw i32 %61, 1
  store i32 %62, ptr %9, align 4
  br label %43

63:                                               ; preds = %43
  br label %64

64:                                               ; preds = %63
  %65 = load ptr, ptr %5, align 8
  %66 = load i32, ptr %65, align 4
  call void @__kmpc_for_static_fini(ptr @1, i32 %66)
  br label %67

67:                                               ; preds = %64, %4
  ret void

68:                                               ; preds = %55, %47
  %69 = landingpad { ptr, i32 }
          catch ptr null
  %70 = extractvalue { ptr, i32 } %69, 0
  call void @__clang_call_terminate(ptr %70) #19
  unreachable
}