; Function Attrs: norecurse nounwind uwtable
define internal void @_ZN3gmx19StatePropagatorData12copyPositionEv.omp_outlined(ptr noalias nocapture noundef readonly %0, ptr noalias nocapture readnone %1, ptr nocapture noundef nonnull readonly align 4 dereferenceable(4) %2, ptr nocapture noundef readonly %3) #16 personality ptr @__gxx_personality_v0 {
  %5 = alloca i32, align 4
  %6 = alloca i32, align 4
  %7 = alloca i32, align 4
  %8 = alloca i32, align 4
  %9 = alloca i32, align 4
  %10 = alloca i32, align 4
  %11 = load i32, ptr %2, align 4
  %12 = icmp sgt i32 %11, 0
  br i1 %12, label %13, label %37

13:                                               ; preds = %4
  %14 = add nsw i32 %11, -1
  store i32 0, ptr %5, align 4
  store i32 %14, ptr %6, align 4
  store i32 1, ptr %7, align 4
  store i32 0, ptr %8, align 4
  %15 = load i32, ptr %0, align 4
  call void @__kmpc_for_static_init_4(ptr nonnull @1, i32 %15, i32 34, ptr nonnull %8, ptr nonnull %5, ptr nonnull %6, ptr nonnull %7, i32 1, i32 1)
  %16 = load i32, ptr %6, align 4
  %17 = call i32 @llvm.smin.i32(i32 %16, i32 %14)
  store i32 %17, ptr %6, align 4
  %18 = load i32, ptr %5, align 4
  %.not12 = icmp sgt i32 %18, %17
  br i1 %.not12, label %._crit_edge, label %.lr.ph

.lr.ph:                                           ; preds = %13
  %19 = getelementptr inbounds i8, ptr %3, i64 4
  %20 = getelementptr inbounds i8, ptr %3, i64 16
  %21 = getelementptr inbounds i8, ptr %3, i64 56
  br label %22

22:                                               ; preds = %.lr.ph, %_ZN3gmx19StatePropagatorData12copyPositionEii.exit
  %.013 = phi i32 [ %18, %.lr.ph ], [ %35, %_ZN3gmx19StatePropagatorData12copyPositionEii.exit ]
  %23 = load i32, ptr %2, align 4
  %24 = load i32, ptr %19, align 4
  invoke void @_Z18getThreadAtomRangeiiiPiS_(i32 noundef %23, i32 noundef %.013, i32 noundef %24, ptr noundef nonnull %9, ptr noundef nonnull %10)
          to label %25 unwind label %38

25:                                               ; preds = %22
  %26 = load i32, ptr %9, align 4
  %27 = load i32, ptr %10, align 4
  %28 = icmp slt i32 %26, %27
  br i1 %28, label %.lr.ph.i, label %_ZN3gmx19StatePropagatorData12copyPositionEii.exit

.lr.ph.i:                                         ; preds = %25
  %29 = sext i32 %26 to i64
  %wide.trip.count.i = sext i32 %27 to i64
  br label %30

30:                                               ; preds = %30, %.lr.ph.i
  %indvars.iv.i = phi i64 [ %29, %.lr.ph.i ], [ %indvars.iv.next.i, %30 ]
  %31 = load ptr, ptr %20, align 8
  %32 = getelementptr inbounds %"class.gmx::BasicVector", ptr %31, i64 %indvars.iv.i
  %33 = load ptr, ptr %21, align 8
  %34 = getelementptr inbounds %"class.gmx::BasicVector", ptr %33, i64 %indvars.iv.i
  call void @llvm.memcpy.p0.p0.i64(ptr noundef nonnull align 4 dereferenceable(12) %34, ptr noundef nonnull align 4 dereferenceable(12) %32, i64 12, i1 false)
  %indvars.iv.next.i = add nsw i64 %indvars.iv.i, 1
  %exitcond.not.i = icmp eq i64 %indvars.iv.next.i, %wide.trip.count.i
  br i1 %exitcond.not.i, label %_ZN3gmx19StatePropagatorData12copyPositionEii.exit, label %30, !llvm.loop !68

_ZN3gmx19StatePropagatorData12copyPositionEii.exit: ; preds = %30, %25
  %35 = add nsw i32 %.013, 1
  %36 = load i32, ptr %6, align 4
  %.not.not = icmp slt i32 %.013, %36
  br i1 %.not.not, label %22, label %._crit_edge

._crit_edge:                                      ; preds = %_ZN3gmx19StatePropagatorData12copyPositionEii.exit, %13
  call void @__kmpc_for_static_fini(ptr nonnull @1, i32 %15)
  br label %37

37:                                               ; preds = %._crit_edge, %4
  ret void

38:                                               ; preds = %22
  %39 = landingpad { ptr, i32 }
          catch ptr null
  %40 = extractvalue { ptr, i32 } %39, 0
  call void @__clang_call_terminate(ptr %40) #32
  unreachable
}